target datalayout = "e-m:e-p270:32:32-p271:32:32-p272:64:64-i64:64-i128:128-f80:128-n8:16:32:64-S128"
target triple = "x86_64-pc-linux-gnu"

%struct._zval_struct = type { %union._zend_value, %union.anon.4, %union.anon.7 }
%union._zend_value = type { i64 }
%union.anon.4 = type { i32 }
%union.anon.7 = type { i32 }
%struct._zend_array = type { %struct._zend_refcounted_h, %union.anon.0, i32, %union.anon.1, i32, i32, i32, i32, i64, ptr }
%struct._zend_refcounted_h = type { i32, %union.anon }
%union.anon = type { i32 }
%union.anon.0 = type { i32 }
%union.anon.1 = type { ptr }
%struct._zend_executor_globals = type { %struct._zval_struct, %struct._zval_struct, [32 x ptr], ptr, ptr, %struct._zend_array, %struct._zend_array, ptr, i32, i32, ptr, ptr, ptr, ptr, ptr, ptr, i64, ptr, ptr, i32, i32, i64, i32, i32, i32, i8, i8, %struct.zend_atomic_bool_s, %struct.zend_atomic_bool_s, ptr, i64, ptr, ptr, %struct._zend_array, %struct._zend_array, i32, i8, %struct._zval_struct, %struct._zval_struct, %struct._zend_stack, %struct._zend_stack, %struct._zend_stack, ptr, i32, i32, i64, ptr, ptr, ptr, %struct._zend_objects_store, ptr, ptr, ptr, [3 x %struct._zend_op], ptr, i8, i8, i64, i32, i32, ptr, [16 x %struct._HashTableIterator], ptr, %union._zend_function, %struct._zend_op, %struct._zend_array, i64, %struct.zend_get_gc_buffer, ptr, ptr, ptr, i64, i8, i32, ptr, ptr, i64, %struct._zend_call_stack, i64, i64, [6 x ptr] }
%struct.zend_atomic_bool_s = type { i8 }
%struct._zend_stack = type { i32, i32, i32, ptr }
%struct._zend_objects_store = type { ptr, i32, i32, i32 }
%struct._HashTableIterator = type { ptr, i32, i32 }
%union._zend_function = type { %struct._zend_op_array }
%struct._zend_op_array = type { i8, [3 x i8], i32, ptr, ptr, ptr, i32, i32, ptr, ptr, ptr, ptr, i32, i32, i32, i32, ptr, ptr, ptr, ptr, ptr, i32, i32, ptr, ptr, ptr, i32, i32, i32, i32, ptr, ptr, [6 x ptr] }
%struct._zend_op = type { ptr, %union._znode_op, %union._znode_op, %union._znode_op, i32, i32, i8, i8, i8, i8 }
%union._znode_op = type { i32 }
%struct.zend_get_gc_buffer = type { ptr, ptr, ptr }
%struct._zend_call_stack = type { ptr, i64 }
%struct._zend_execute_data = type { ptr, ptr, ptr, ptr, %struct._zval_struct, ptr, ptr, ptr, ptr }
%struct._zend_object = type { %struct._zend_refcounted_h, i32, ptr, ptr, ptr, [1 x %struct._zval_struct] }
%struct._zend_try_catch_element = type { i32, i32, i32, i32 }

@executor_globals = external global %struct._zend_executor_globals, align 8

; Function Attrs: nounwind uwtable
define zeroext i1 @phpdbg_check_caught_ex(ptr noundef %0, ptr noundef %1) #0 {
  %3 = alloca ptr, align 8
  %4 = alloca ptr, align 8
  %5 = alloca i1, align 1
  %6 = alloca ptr, align 8
  %7 = alloca ptr, align 8
  %8 = alloca ptr, align 8
  %9 = alloca ptr, align 8
  %10 = alloca i32, align 4
  %11 = alloca i32, align 4
  %12 = alloca ptr, align 8
  %13 = alloca i32, align 4
  %14 = alloca i32, align 4
  %15 = alloca ptr, align 8
  store ptr %0, ptr %6, align 8
  store ptr %1, ptr %7, align 8
  %16 = load ptr, ptr %6, align 8
  %17 = getelementptr inbounds %struct._zend_execute_data, ptr %16, i32 0, i32 3
  %18 = load ptr, ptr %17, align 8
  store ptr %18, ptr %12, align 8
  %19 = load ptr, ptr %6, align 8
  %20 = getelementptr inbounds %struct._zend_execute_data, ptr %19, i32 0, i32 0
  %21 = load ptr, ptr %20, align 8
  %22 = icmp uge ptr %21, getelementptr inbounds (%struct._zend_executor_globals, ptr @executor_globals, i32 0, i32 53)
  br i1 %22, label %23, label %33

23:                                               ; preds = %2
  %24 = load ptr, ptr %6, align 8
  %25 = getelementptr inbounds %struct._zend_execute_data, ptr %24, i32 0, i32 0
  %26 = load ptr, ptr %25, align 8
  %27 = icmp ult ptr %26, getelementptr inbounds (%struct._zend_op, ptr getelementptr inbounds (%struct._zend_executor_globals, ptr @executor_globals, i32 0, i32 53), i64 3)
  br i1 %27, label %28, label %33

28:                                               ; preds = %23
  %29 = load ptr, ptr getelementptr inbounds (%struct._zend_executor_globals, ptr @executor_globals, i32 0, i32 52), align 8
  %30 = icmp ne ptr %29, null
  br i1 %30, label %31, label %33

31:                                               ; preds = %28
  %32 = load ptr, ptr getelementptr inbounds (%struct._zend_executor_globals, ptr @executor_globals, i32 0, i32 52), align 8
  store ptr %32, ptr %8, align 8
  br label %37

33:                                               ; preds = %28, %23, %2
  %34 = load ptr, ptr %6, align 8
  %35 = getelementptr inbounds %struct._zend_execute_data, ptr %34, i32 0, i32 0
  %36 = load ptr, ptr %35, align 8
  store ptr %36, ptr %8, align 8
  br label %37

37:                                               ; preds = %33, %31
  %38 = load ptr, ptr %8, align 8
  %39 = load ptr, ptr %12, align 8
  %40 = getelementptr inbounds %struct._zend_op_array, ptr %39, i32 0, i32 16
  %41 = load ptr, ptr %40, align 8
  %42 = ptrtoint ptr %38 to i64
  %43 = ptrtoint ptr %41 to i64
  %44 = sub i64 %42, %43
  %45 = sdiv exact i64 %44, 32
  %46 = trunc i64 %45 to i32
  store i32 %46, ptr %10, align 4
  store i32 0, ptr %11, align 4
  br label %47

47:                                               ; preds = %185, %37
  %48 = load i32, ptr %11, align 4
  %49 = load ptr, ptr %12, align 8
  %50 = getelementptr inbounds %struct._zend_op_array, ptr %49, i32 0, i32 22
  %51 = load i32, ptr %50, align 4
  %52 = icmp ult i32 %48, %51
  br i1 %52, label %53, label %64

53:                                               ; preds = %47
  %54 = load ptr, ptr %12, align 8
  %55 = getelementptr inbounds %struct._zend_op_array, ptr %54, i32 0, i32 24
  %56 = load ptr, ptr %55, align 8
  %57 = load i32, ptr %11, align 4
  %58 = zext i32 %57 to i64
  %59 = getelementptr inbounds %struct._zend_try_catch_element, ptr %56, i64 %58
  %60 = getelementptr inbounds %struct._zend_try_catch_element, ptr %59, i32 0, i32 0
  %61 = load i32, ptr %60, align 4
  %62 = load i32, ptr %10, align 4
  %63 = icmp ule i32 %61, %62
  br label %64

64:                                               ; preds = %53, %47
  %65 = phi i1 [ false, %47 ], [ %63, %53 ]
  br i1 %65, label %66, label %188

66:                                               ; preds = %64
  %67 = load ptr, ptr %12, align 8
  %68 = getelementptr inbounds %struct._zend_op_array, ptr %67, i32 0, i32 24
  %69 = load ptr, ptr %68, align 8
  %70 = load i32, ptr %11, align 4
  %71 = zext i32 %70 to i64
  %72 = getelementptr inbounds %struct._zend_try_catch_element, ptr %69, i64 %71
  %73 = getelementptr inbounds %struct._zend_try_catch_element, ptr %72, i32 0, i32 1
  %74 = load i32, ptr %73, align 4
  store i32 %74, ptr %13, align 4
  %75 = load ptr, ptr %12, align 8
  %76 = getelementptr inbounds %struct._zend_op_array, ptr %75, i32 0, i32 24
  %77 = load ptr, ptr %76, align 8
  %78 = load i32, ptr %11, align 4
  %79 = zext i32 %78 to i64
  %80 = getelementptr inbounds %struct._zend_try_catch_element, ptr %77, i64 %79
  %81 = getelementptr inbounds %struct._zend_try_catch_element, ptr %80, i32 0, i32 2
  %82 = load i32, ptr %81, align 4
  store i32 %82, ptr %14, align 4
  %83 = load i32, ptr %10, align 4
  %84 = load i32, ptr %13, align 4
  %85 = icmp ule i32 %83, %84
  br i1 %85, label %90, label %86

86:                                               ; preds = %66
  %87 = load i32, ptr %10, align 4
  %88 = load i32, ptr %14, align 4
  %89 = icmp ule i32 %87, %88
  br i1 %89, label %90, label %184

90:                                               ; preds = %86, %66
  %91 = load i32, ptr %14, align 4
  %92 = icmp ne i32 %91, 0
  br i1 %92, label %93, label %94

93:                                               ; preds = %90
  store i1 true, ptr %5, align 1
  br label %194

94:                                               ; preds = %90
  %95 = load ptr, ptr %12, align 8
  %96 = getelementptr inbounds %struct._zend_op_array, ptr %95, i32 0, i32 16
  %97 = load ptr, ptr %96, align 8
  %98 = load i32, ptr %13, align 4
  %99 = zext i32 %98 to i64
  %100 = getelementptr inbounds %struct._zend_op, ptr %97, i64 %99
  store ptr %100, ptr %9, align 8
  br label %101

101:                                              ; preds = %177, %94
  %102 = load ptr, ptr %6, align 8
  %103 = getelementptr inbounds %struct._zend_execute_data, ptr %102, i32 0, i32 7
  %104 = load ptr, ptr %103, align 8
  %105 = load ptr, ptr %9, align 8
  %106 = getelementptr inbounds %struct._zend_op, ptr %105, i32 0, i32 4
  %107 = load i32, ptr %106, align 4
  %108 = and i32 %107, -2
  %109 = zext i32 %108 to i64
  %110 = getelementptr inbounds i8, ptr %104, i64 %109
  %111 = getelementptr inbounds ptr, ptr %110, i64 0
  %112 = load ptr, ptr %111, align 8
  store ptr %112, ptr %15, align 8
  %113 = icmp ne ptr %112, null
  br i1 %113, label %146, label %114

114:                                              ; preds = %101
  %115 = load ptr, ptr %9, align 8
  %116 = load ptr, ptr %9, align 8
  %117 = getelementptr inbounds %struct._zend_op, ptr %116, i32 0, i32 1
  %118 = load i32, ptr %117, align 8
  %119 = sext i32 %118 to i64
  %120 = getelementptr inbounds i8, ptr %115, i64 %119
  %121 = getelementptr inbounds %struct._zval_struct, ptr %120, i32 0, i32 0
  %122 = load ptr, ptr %121, align 8
  %123 = load ptr, ptr %9, align 8
  %124 = load ptr, ptr %9, align 8
  %125 = getelementptr inbounds %struct._zend_op, ptr %124, i32 0, i32 1
  %126 = load i32, ptr %125, align 8
  %127 = sext i32 %126 to i64
  %128 = getelementptr inbounds i8, ptr %123, i64 %127
  %129 = getelementptr inbounds %struct._zval_struct, ptr %128, i64 1
  %130 = getelementptr inbounds %struct._zval_struct, ptr %129, i32 0, i32 0
  %131 = load ptr, ptr %130, align 8
  %132 = call ptr @zend_fetch_class_by_name(ptr noundef %122, ptr noundef %131, i32 noundef 128)
  store ptr %132, ptr %15, align 8
  br label %133

133:                                              ; preds = %114
  %134 = load ptr, ptr %15, align 8
  %135 = load ptr, ptr %6, align 8
  %136 = getelementptr inbounds %struct._zend_execute_data, ptr %135, i32 0, i32 7
  %137 = load ptr, ptr %136, align 8
  %138 = load ptr, ptr %9, align 8
  %139 = getelementptr inbounds %struct._zend_op, ptr %138, i32 0, i32 4
  %140 = load i32, ptr %139, align 4
  %141 = and i32 %140, -2
  %142 = zext i32 %141 to i64
  %143 = getelementptr inbounds i8, ptr %137, i64 %142
  %144 = getelementptr inbounds ptr, ptr %143, i64 0
  store ptr %134, ptr %144, align 8
  br label %145

145:                                              ; preds = %133
  br label %146

146:                                              ; preds = %145, %101
  %147 = load ptr, ptr %15, align 8
  %148 = load ptr, ptr %7, align 8
  %149 = getelementptr inbounds %struct._zend_object, ptr %148, i32 0, i32 2
  %150 = load ptr, ptr %149, align 8
  %151 = icmp eq ptr %147, %150
  br i1 %151, label %169, label %152

152:                                              ; preds = %146
  %153 = load ptr, ptr %15, align 8
  %154 = icmp ne ptr %153, null
  br i1 %154, label %155, label %170

155:                                              ; preds = %152
  %156 = load ptr, ptr %7, align 8
  %157 = getelementptr inbounds %struct._zend_object, ptr %156, i32 0, i32 2
  %158 = load ptr, ptr %157, align 8
  %159 = load ptr, ptr %15, align 8
  store ptr %158, ptr %3, align 8
  store ptr %159, ptr %4, align 8
  %160 = load ptr, ptr %3, align 8
  %161 = load ptr, ptr %4, align 8
  %162 = icmp eq ptr %160, %161
  br i1 %162, label %167, label %163

163:                                              ; preds = %155
  %164 = load ptr, ptr %3, align 8
  %165 = load ptr, ptr %4, align 8
  %166 = call zeroext i1 @instanceof_function_slow(ptr noundef %164, ptr noundef %165) #13
  br label %167

167:                                              ; preds = %163, %155
  %168 = phi i1 [ true, %155 ], [ %166, %163 ]
  br i1 %168, label %169, label %170

169:                                              ; preds = %167, %146
  store i1 true, ptr %5, align 1
  br label %194

170:                                              ; preds = %167, %152
  %171 = load ptr, ptr %9, align 8
  %172 = getelementptr inbounds %struct._zend_op, ptr %171, i32 0, i32 4
  %173 = load i32, ptr %172, align 4
  %174 = and i32 %173, 1
  %175 = icmp ne i32 %174, 0
  br i1 %175, label %176, label %177

176:                                              ; preds = %170
  store i1 false, ptr %5, align 1
  br label %194

177:                                              ; preds = %170
  %178 = load ptr, ptr %9, align 8
  %179 = load ptr, ptr %9, align 8
  %180 = getelementptr inbounds %struct._zend_op, ptr %179, i32 0, i32 2
  %181 = load i32, ptr %180, align 4
  %182 = sext i32 %181 to i64
  %183 = getelementptr inbounds i8, ptr %178, i64 %182
  store ptr %183, ptr %9, align 8
  br label %101

184:                                              ; preds = %86
  br label %185

185:                                              ; preds = %184
  %186 = load i32, ptr %11, align 4
  %187 = add i32 %186, 1
  store i32 %187, ptr %11, align 4
  br label %47

188:                                              ; preds = %64
  %189 = load ptr, ptr %8, align 8
  %190 = getelementptr inbounds %struct._zend_op, ptr %189, i32 0, i32 6
  %191 = load i8, ptr %190, align 4
  %192 = zext i8 %191 to i32
  %193 = icmp eq i32 %192, 107
  store i1 %193, ptr %5, align 1
  br label %194

194:                                              ; preds = %188, %176, %169, %93
  %195 = load i1, ptr %5, align 1
  ret i1 %195
}